target datalayout = "e-m:e-p270:32:32-p271:32:32-p272:64:64-i64:64-i128:128-f80:128-n8:16:32:64-S128"
target triple = "x86_64-pc-linux-gnu"

@hf_q931_user_protocol_discriminator = internal global i32 0, align 4
@hf_q931_user_information_len = internal global i32 0, align 4
@.str.49 = private unnamed_addr constant [10 x i8] c"%d octets\00", align 1
@q931_user_heur_subdissector_list = internal global ptr null, align 8
@hf_q931_user_information_str = internal global i32 0, align 4
@hf_q931_user_information_bytes = internal global i32 0, align 4

; Function Attrs: null_pointer_is_valid sspstrong uwtable
define hidden void @dissect_q931_user_user_ie(ptr noundef %0, ptr noundef %1, i32 noundef %2, i32 noundef %3, ptr noundef %4) #0 {
  %6 = alloca ptr, align 8
  %7 = alloca ptr, align 8
  %8 = alloca i32, align 4
  %9 = alloca i32, align 4
  %10 = alloca ptr, align 8
  %11 = alloca i8, align 1
  %12 = alloca ptr, align 8
  %13 = alloca ptr, align 8
  %14 = alloca i32, align 4
  store ptr %0, ptr %6, align 8
  store ptr %1, ptr %7, align 8
  store i32 %2, ptr %8, align 4
  store i32 %3, ptr %9, align 4
  store ptr %4, ptr %10, align 8
  call void @llvm.lifetime.start.p0(i64 1, ptr %11) #8
  call void @llvm.lifetime.start.p0(i64 8, ptr %12) #8
  store ptr null, ptr %12, align 8
  call void @llvm.lifetime.start.p0(i64 8, ptr %13) #8
  %15 = load i32, ptr %9, align 4
  %16 = icmp eq i32 %15, 0
  br i1 %16, label %17, label %18

17:                                               ; preds = %5
  store i32 1, ptr %14, align 4
  br label %76

18:                                               ; preds = %5
  %19 = load ptr, ptr %6, align 8
  %20 = load i32, ptr %8, align 4
  %21 = call zeroext i8 @tvb_get_uint8(ptr noundef %19, i32 noundef %20)
  store i8 %21, ptr %11, align 1
  %22 = load ptr, ptr %10, align 8
  %23 = load i32, ptr @hf_q931_user_protocol_discriminator, align 4
  %24 = load ptr, ptr %6, align 8
  %25 = load i32, ptr %8, align 4
  %26 = call ptr @proto_tree_add_item(ptr noundef %22, i32 noundef %23, ptr noundef %24, i32 noundef %25, i32 noundef 1, i32 noundef 0)
  %27 = load i32, ptr %8, align 4
  %28 = add i32 %27, 1
  store i32 %28, ptr %8, align 4
  %29 = load i32, ptr %9, align 4
  %30 = sub i32 %29, 1
  store i32 %30, ptr %9, align 4
  %31 = load i32, ptr %9, align 4
  %32 = icmp eq i32 %31, 0
  br i1 %32, label %33, label %34

33:                                               ; preds = %18
  store i32 1, ptr %14, align 4
  br label %76

34:                                               ; preds = %18
  %35 = load i8, ptr %11, align 1
  %36 = zext i8 %35 to i32
  switch i32 %36, label %68 [
    i32 0, label %37
    i32 4, label %61
  ]

37:                                               ; preds = %34
  %38 = load ptr, ptr %6, align 8
  %39 = load i32, ptr %8, align 4
  %40 = load i32, ptr %9, align 4
  %41 = call ptr @tvb_new_subset_length(ptr noundef %38, i32 noundef %39, i32 noundef %40)
  store ptr %41, ptr %12, align 8
  %42 = load ptr, ptr %10, align 8
  %43 = load i32, ptr @hf_q931_user_information_len, align 4
  %44 = load ptr, ptr %6, align 8
  %45 = load i32, ptr %8, align 4
  %46 = load i32, ptr %9, align 4
  %47 = load i32, ptr %9, align 4
  %48 = load i32, ptr %9, align 4
  %49 = call ptr (ptr, i32, ptr, i32, i32, i32, ptr, ...) @proto_tree_add_uint_format_value(ptr noundef %42, i32 noundef %43, ptr noundef %44, i32 noundef %45, i32 noundef %46, i32 noundef %47, ptr noundef @.str.49, i32 noundef %48)
  %50 = load ptr, ptr @q931_user_heur_subdissector_list, align 8
  %51 = load ptr, ptr %12, align 8
  %52 = load ptr, ptr %7, align 8
  %53 = load ptr, ptr %10, align 8
  %54 = call zeroext i1 @dissector_try_heuristic(ptr noundef %50, ptr noundef %51, ptr noundef %52, ptr noundef %53, ptr noundef %13, ptr noundef null)
  br i1 %54, label %60, label %55

55:                                               ; preds = %37
  %56 = load ptr, ptr %12, align 8
  %57 = load ptr, ptr %7, align 8
  %58 = load ptr, ptr %10, align 8
  %59 = call i32 @call_data_dissector(ptr noundef %56, ptr noundef %57, ptr noundef %58)
  br label %60

60:                                               ; preds = %55, %37
  br label %75

61:                                               ; preds = %34
  %62 = load ptr, ptr %10, align 8
  %63 = load i32, ptr @hf_q931_user_information_str, align 4
  %64 = load ptr, ptr %6, align 8
  %65 = load i32, ptr %8, align 4
  %66 = load i32, ptr %9, align 4
  %67 = call ptr @proto_tree_add_item(ptr noundef %62, i32 noundef %63, ptr noundef %64, i32 noundef %65, i32 noundef %66, i32 noundef 0)
  br label %75

68:                                               ; preds = %34
  %69 = load ptr, ptr %10, align 8
  %70 = load i32, ptr @hf_q931_user_information_bytes, align 4
  %71 = load ptr, ptr %6, align 8
  %72 = load i32, ptr %8, align 4
  %73 = load i32, ptr %9, align 4
  %74 = call ptr @proto_tree_add_item(ptr noundef %69, i32 noundef %70, ptr noundef %71, i32 noundef %72, i32 noundef %73, i32 noundef 0)
  br label %75

75:                                               ; preds = %68, %61, %60
  store i32 0, ptr %14, align 4
  br label %76

76:                                               ; preds = %75, %33, %17
  call void @llvm.lifetime.end.p0(i64 8, ptr %13) #8
  call void @llvm.lifetime.end.p0(i64 8, ptr %12) #8
  call void @llvm.lifetime.end.p0(i64 1, ptr %11) #8
  %77 = load i32, ptr %14, align 4
  switch i32 %77, label %79 [
    i32 0, label %78
    i32 1, label %78
  ]

78:                                               ; preds = %76, %76
  ret void

79:                                               ; preds = %76
  unreachable
}