; Function Attrs: null_pointer_is_valid sspstrong uwtable
define hidden void @dissect_q931_user_user_ie(ptr noundef %0, ptr noundef %1, i32 noundef %2, i32 noundef %3, ptr noundef %4) local_unnamed_addr #0 {
  %6 = alloca ptr, align 8
  call void @llvm.lifetime.start.p0(i64 8, ptr nonnull %6) #7
  %7 = icmp eq i32 %3, 0
  br i1 %7, label %30, label %8

8:                                                ; preds = %5
  %9 = tail call zeroext i8 @tvb_get_uint8(ptr noundef %0, i32 noundef %2)
  %10 = load i32, ptr @hf_q931_user_protocol_discriminator, align 4
  %11 = tail call ptr @proto_tree_add_item(ptr noundef %4, i32 noundef %10, ptr noundef %0, i32 noundef %2, i32 noundef 1, i32 noundef 0)
  %12 = add i32 %2, 1
  %13 = add i32 %3, -1
  %14 = icmp eq i32 %13, 0
  br i1 %14, label %30, label %15

15:                                               ; preds = %8
  switch i8 %9, label %27 [
    i8 0, label %16
    i8 4, label %24
  ]

16:                                               ; preds = %15
  %17 = tail call ptr @tvb_new_subset_length(ptr noundef %0, i32 noundef %12, i32 noundef %13)
  %18 = load i32, ptr @hf_q931_user_information_len, align 4
  %19 = tail call ptr (ptr, i32, ptr, i32, i32, i32, ptr, ...) @proto_tree_add_uint_format_value(ptr noundef %4, i32 noundef %18, ptr noundef %0, i32 noundef %12, i32 noundef %13, i32 noundef %13, ptr noundef nonnull @.str.49, i32 noundef %13)
  %20 = load ptr, ptr @q931_user_heur_subdissector_list, align 8
  %21 = call zeroext i1 @dissector_try_heuristic(ptr noundef %20, ptr noundef %17, ptr noundef %1, ptr noundef %4, ptr noundef nonnull %6, ptr noundef null)
  br i1 %21, label %30, label %22

22:                                               ; preds = %16
  %23 = call i32 @call_data_dissector(ptr noundef %17, ptr noundef %1, ptr noundef %4)
  br label %30

24:                                               ; preds = %15
  %25 = load i32, ptr @hf_q931_user_information_str, align 4
  %26 = tail call ptr @proto_tree_add_item(ptr noundef %4, i32 noundef %25, ptr noundef %0, i32 noundef %12, i32 noundef %13, i32 noundef 0)
  br label %30

27:                                               ; preds = %15
  %28 = load i32, ptr @hf_q931_user_information_bytes, align 4
  %29 = tail call ptr @proto_tree_add_item(ptr noundef %4, i32 noundef %28, ptr noundef %0, i32 noundef %12, i32 noundef %13, i32 noundef 0)
  br label %30

30:                                               ; preds = %24, %27, %22, %16, %8, %5
  call void @llvm.lifetime.end.p0(i64 8, ptr nonnull %6) #7
  ret void
}